target datalayout = "e-m:e-p270:32:32-p271:32:32-p272:64:64-i64:64-i128:128-f80:128-n8:16:32:64-S128"
target triple = "x86_64-pc-linux-gnu"

%struct.RBasic = type { i64, i64 }
%struct.RRational = type { %struct.RBasic, i64, i64 }

; Function Attrs: inlinehint nounwind sspstrong willreturn memory(none) uwtable
define internal i64 @rbimpl_fix2long_by_idiv(i64 noundef %0) #8 {
  %2 = alloca i64, align 8
  %3 = alloca i64, align 8
  %4 = alloca i64, align 8
  %5 = alloca i64, align 8
  store i64 %0, ptr %2, align 8, !tbaa !7
  call void @llvm.lifetime.start.p0(i64 8, ptr %3) #21
  %6 = load i64, ptr %2, align 8, !tbaa !7
  %7 = sub i64 %6, 1
  store i64 %7, ptr %3, align 8, !tbaa !7
  call void @llvm.lifetime.start.p0(i64 8, ptr %4) #21
  %8 = load i64, ptr %3, align 8, !tbaa !7
  %9 = sdiv i64 %8, 2
  store i64 %9, ptr %4, align 8, !tbaa !7
  call void @llvm.lifetime.start.p0(i64 8, ptr %5) #21
  %10 = load i64, ptr %4, align 8, !tbaa !7
  store i64 %10, ptr %5, align 8, !tbaa !7
  %11 = load i64, ptr %5, align 8, !tbaa !7
  call void @llvm.lifetime.end.p0(i64 8, ptr %5) #21
  call void @llvm.lifetime.end.p0(i64 8, ptr %4) #21
  call void @llvm.lifetime.end.p0(i64 8, ptr %3) #21
  ret i64 %11
}

; Function Attrs: inlinehint nounwind sspstrong willreturn memory(none) uwtable
define internal i64 @rbimpl_fix2long_by_shift(i64 noundef %0) #8 {
  %2 = alloca i64, align 8
  %3 = alloca i64, align 8
  %4 = alloca i64, align 8
  %5 = alloca i64, align 8
  store i64 %0, ptr %2, align 8, !tbaa !7
  call void @llvm.lifetime.start.p0(i64 8, ptr %3) #21
  %6 = load i64, ptr %2, align 8, !tbaa !7
  store i64 %6, ptr %3, align 8, !tbaa !7
  call void @llvm.lifetime.start.p0(i64 8, ptr %4) #21
  %7 = load i64, ptr %3, align 8, !tbaa !7
  %8 = ashr i64 %7, 1
  store i64 %8, ptr %4, align 8, !tbaa !7
  call void @llvm.lifetime.start.p0(i64 8, ptr %5) #21
  %9 = load i64, ptr %4, align 8, !tbaa !7
  store i64 %9, ptr %5, align 8, !tbaa !7
  %10 = load i64, ptr %5, align 8, !tbaa !7
  call void @llvm.lifetime.end.p0(i64 8, ptr %5) #21
  call void @llvm.lifetime.end.p0(i64 8, ptr %4) #21
  call void @llvm.lifetime.end.p0(i64 8, ptr %3) #21
  ret i64 %10
}

; Function Attrs: inlinehint nounwind sspstrong willreturn memory(none) uwtable
define internal zeroext i1 @rbimpl_right_shift_is_arithmetic_p() #8 {
  ret i1 true
}

; Function Attrs: inlinehint nounwind sspstrong willreturn memory(none) uwtable
define internal i64 @rb_fix2long(i64 noundef %0) #8 {
  %2 = alloca i64, align 8
  %3 = alloca i64, align 8
  store i64 %0, ptr %3, align 8, !tbaa !7
  %4 = call zeroext i1 @rbimpl_right_shift_is_arithmetic_p() #23
  br i1 %4, label %5, label %8

5:                                                ; preds = %1
  %6 = load i64, ptr %3, align 8, !tbaa !7
  %7 = call i64 @rbimpl_fix2long_by_shift(i64 noundef %6) #23
  store i64 %7, ptr %2, align 8
  br label %11

8:                                                ; preds = %1
  %9 = load i64, ptr %3, align 8, !tbaa !7
  %10 = call i64 @rbimpl_fix2long_by_idiv(i64 noundef %9) #23
  store i64 %10, ptr %2, align 8
  br label %11

11:                                               ; preds = %8, %5
  %12 = load i64, ptr %2, align 8
  ret i64 %12
}

; Function Attrs: inlinehint nounwind sspstrong willreturn memory(none) uwtable
define internal zeroext i1 @RB_FIXNUM_P(i64 noundef %0) #8 {
  %2 = alloca i64, align 8
  store i64 %0, ptr %2, align 8, !tbaa !7
  %3 = load i64, ptr %2, align 8, !tbaa !7
  %4 = and i64 %3, 1
  %5 = icmp ne i64 %4, 0
  ret i1 %5
}

; Function Attrs: inlinehint nounwind sspstrong uwtable
define internal i64 @rb_num2long_inline(i64 noundef %0) #3 {
  %2 = alloca i64, align 8
  %3 = alloca i64, align 8
  store i64 %0, ptr %3, align 8, !tbaa !7
  %4 = load i64, ptr %3, align 8, !tbaa !7
  %5 = call zeroext i1 @RB_FIXNUM_P(i64 noundef %4) #23
  br i1 %5, label %6, label %9

6:                                                ; preds = %1
  %7 = load i64, ptr %3, align 8, !tbaa !7
  %8 = call i64 @rb_fix2long(i64 noundef %7) #23
  store i64 %8, ptr %2, align 8
  br label %12

9:                                                ; preds = %1
  %10 = load i64, ptr %3, align 8, !tbaa !7
  %11 = call i64 @rb_num2long(i64 noundef %10)
  store i64 %11, ptr %2, align 8
  br label %12

12:                                               ; preds = %9, %6
  %13 = load i64, ptr %2, align 8
  ret i64 %13
}

; Function Attrs: nounwind sspstrong uwtable
define hidden i64 @rb_rational_hash(i64 noundef %0) #0 {
  %2 = alloca i64, align 8
  %3 = alloca i64, align 8
  %4 = alloca [2 x i64], align 16
  %5 = alloca i64, align 8
  %6 = alloca ptr, align 8
  store i64 %0, ptr %2, align 8, !tbaa !7
  call void @llvm.lifetime.start.p0(i64 8, ptr %3) #21
  call void @llvm.lifetime.start.p0(i64 16, ptr %4) #21
  call void @llvm.lifetime.start.p0(i64 8, ptr %5) #21
  call void @llvm.lifetime.start.p0(i64 8, ptr %6) #21
  %7 = load i64, ptr %2, align 8, !tbaa !7
  %8 = inttoptr i64 %7 to ptr
  store ptr %8, ptr %6, align 8, !tbaa !16
  %9 = load ptr, ptr %6, align 8, !tbaa !16
  %10 = getelementptr inbounds nuw %struct.RRational, ptr %9, i32 0, i32 1
  %11 = load i64, ptr %10, align 8, !tbaa !19
  %12 = call i64 @rb_hash(i64 noundef %11)
  store i64 %12, ptr %5, align 8, !tbaa !7
  %13 = load i64, ptr %5, align 8, !tbaa !7
  %14 = call i64 @rb_num2long_inline(i64 noundef %13)
  %15 = getelementptr [2 x i64], ptr %4, i64 0, i64 0
  store i64 %14, ptr %15, align 16, !tbaa !7
  %16 = load ptr, ptr %6, align 8, !tbaa !16
  %17 = getelementptr inbounds nuw %struct.RRational, ptr %16, i32 0, i32 2
  %18 = load i64, ptr %17, align 8, !tbaa !21
  %19 = call i64 @rb_hash(i64 noundef %18)
  store i64 %19, ptr %5, align 8, !tbaa !7
  %20 = load i64, ptr %5, align 8, !tbaa !7
  %21 = call i64 @rb_num2long_inline(i64 noundef %20)
  %22 = getelementptr [2 x i64], ptr %4, i64 0, i64 1
  store i64 %21, ptr %22, align 8, !tbaa !7
  %23 = getelementptr inbounds [2 x i64], ptr %4, i64 0, i64 0
  %24 = call i64 @rb_memhash(ptr noundef %23, i64 noundef 16)
  store i64 %24, ptr %3, align 8, !tbaa !7
  %25 = load i64, ptr %3, align 8, !tbaa !7
  call void @llvm.lifetime.end.p0(i64 8, ptr %6) #21
  call void @llvm.lifetime.end.p0(i64 8, ptr %5) #21
  call void @llvm.lifetime.end.p0(i64 16, ptr %4) #21
  call void @llvm.lifetime.end.p0(i64 8, ptr %3) #21
  ret i64 %25
}