; Function Attrs: nounwind sspstrong uwtable
define hidden i64 @rb_rational_hash(i64 noundef %0) local_unnamed_addr #0 {
  %2 = alloca [2 x i64], align 16
  call void @llvm.lifetime.start.p0(i64 16, ptr nonnull %2) #17
  %3 = inttoptr i64 %0 to ptr
  %4 = getelementptr inbounds nuw i8, ptr %3, i64 16
  %5 = load i64, ptr %4, align 8, !tbaa !19
  %6 = tail call i64 @rb_hash(i64 noundef %5) #17
  %7 = and i64 %6, 1
  %.not.i = icmp eq i64 %7, 0
  br i1 %.not.i, label %10, label %8

8:                                                ; preds = %1
  %9 = ashr i64 %6, 1
  br label %rb_num2long_inline.exit

10:                                               ; preds = %1
  %11 = tail call i64 @rb_num2long(i64 noundef %6) #17
  br label %rb_num2long_inline.exit

rb_num2long_inline.exit:                          ; preds = %8, %10
  %.0.i = phi i64 [ %9, %8 ], [ %11, %10 ]
  store i64 %.0.i, ptr %2, align 16, !tbaa !18
  %12 = getelementptr inbounds nuw i8, ptr %3, i64 24
  %13 = load i64, ptr %12, align 8, !tbaa !21
  %14 = tail call i64 @rb_hash(i64 noundef %13) #17
  %15 = and i64 %14, 1
  %.not.i5 = icmp eq i64 %15, 0
  br i1 %.not.i5, label %18, label %16

16:                                               ; preds = %rb_num2long_inline.exit
  %17 = ashr i64 %14, 1
  br label %rb_num2long_inline.exit7

18:                                               ; preds = %rb_num2long_inline.exit
  %19 = tail call i64 @rb_num2long(i64 noundef %14) #17
  br label %rb_num2long_inline.exit7

rb_num2long_inline.exit7:                         ; preds = %16, %18
  %.0.i6 = phi i64 [ %17, %16 ], [ %19, %18 ]
  %20 = getelementptr inbounds nuw i8, ptr %2, i64 8
  store i64 %.0.i6, ptr %20, align 8, !tbaa !18
  %21 = call i64 @rb_memhash(ptr noundef nonnull %2, i64 noundef 16) #17
  call void @llvm.lifetime.end.p0(i64 16, ptr nonnull %2) #17
  ret i64 %21
}